; Function Attrs: nofree norecurse nosync nounwind memory(read, inaccessiblemem: none) uwtable
define range(i32 0, 2) i32 @Ssw_RarManPoIsConst0(ptr noundef readonly captures(none) %0, ptr noundef readonly captures(none) %1) local_unnamed_addr #8 {
  %3 = getelementptr i8, ptr %1, i64 36
  %.val = load i32, ptr %3, align 4, !tbaa !39
  %.val9 = load ptr, ptr %0, align 8, !tbaa !33
  %4 = getelementptr i8, ptr %0, i64 40
  %.val10 = load ptr, ptr %4, align 8, !tbaa !34
  %5 = getelementptr i8, ptr %.val9, i64 4
  %.val9.val = load i32, ptr %5, align 4, !tbaa !10
  %6 = mul nsw i32 %.val9.val, %.val
  %7 = sext i32 %6 to i64
  %8 = getelementptr inbounds i64, ptr %.val10, i64 %7
  %9 = icmp sgt i32 %.val9.val, 0
  br i1 %9, label %.lr.ph.preheader, label %._crit_edge

.lr.ph.preheader:                                 ; preds = %2
  %wide.trip.count = zext nneg i32 %.val9.val to i64
  br label %.lr.ph

10:                                               ; preds = %.lr.ph
  %indvars.iv.next = add nuw nsw i64 %indvars.iv, 1
  %exitcond.not = icmp eq i64 %indvars.iv.next, %wide.trip.count
  br i1 %exitcond.not, label %._crit_edge, label %.lr.ph, !llvm.loop !87

.lr.ph:                                           ; preds = %.lr.ph.preheader, %10
  %indvars.iv = phi i64 [ 0, %.lr.ph.preheader ], [ %indvars.iv.next, %10 ]
  %11 = getelementptr inbounds nuw i64, ptr %8, i64 %indvars.iv
  %12 = load i64, ptr %11, align 8, !tbaa !40
  %.not = icmp eq i64 %12, 0
  br i1 %.not, label %10, label %._crit_edge

._crit_edge:                                      ; preds = %.lr.ph, %10, %2
  %.08 = phi i32 [ 1, %2 ], [ 1, %10 ], [ 0, %.lr.ph ]
  ret i32 %.08
}